Certificate:
    Data:
        Version: 3 (0x2)
        Serial Number: 2 (0x2)
    Signature Algorithm: md5WithRSAEncryption
        Issuer: C=US, ST=Wisconsin, L=Madison, O=University of Wisconsin -- Madison, O=Computer Sciences Department, OU=Condor Project, CN=ROOT CA
        Validity
            Not Before: Feb 18 08:35:21 2014 GMT
            Not After : Feb 18 08:35:21 2015 GMT
        Subject: C=US, ST=Wisconsin, L=Madison, O=University of Wisconsin -- Madison, O=Computer Sciences Department, OU=Condor Project, CN=omega.cs.wisc.edu/emailAddress=zmiller@cs.wisc.edu
        Subject Public Key Info:
            Public Key Algorithm: rsaEncryption
                Public-Key: (1024 bit)
                Modulus:
                    00:ce:95:90:36:fa:cc:ed:52:fd:fe:03:5b:f4:6e:
                    fc:92:04:e5:0c:a0:a7:18:81:c6:48:b4:f2:07:b3:
                    70:d3:c1:a2:ae:24:0f:ad:3a:d5:49:11:41:b2:8d:
                    c7:69:2b:23:b7:be:fb:91:9c:de:a4:13:52:29:d5:
                    de:bc:20:50:41:e8:7d:37:c2:70:c0:64:ca:19:b4:
                    9c:87:40:6d:1b:58:67:b9:ce:8e:a8:2b:da:48:a2:
                    47:a5:34:fe:20:f7:80:a3:8e:f7:6d:37:f0:a6:f2:
                    75:02:f0:36:ff:f9:b6:8a:10:a3:a2:2b:64:86:40:
                    08:ae:77:cc:82:81:10:3d:cd
                Exponent: 65537 (0x10001)
        X509v3 extensions:
            X509v3 Basic Constraints: 
                CA:FALSE
            Netscape Comment: 
                OpenSSL Generated Certificate
            X509v3 Subject Key Identifier: 
                AD:17:52:1F:9F:D6:68:A9:59:F9:AD:D1:75:4A:96:7D:2B:BA:7F:36
            X509v3 Authority Key Identifier: 
                keyid:A4:33:F5:08:20:0B:9A:8B:54:40:16:51:E9:64:0C:C3:83:B8:BD:33
                DirName:/C=US/ST=Wisconsin/L=Madison/O=University of Wisconsin -- Madison/O=Computer Sciences Department/OU=Condor Project/CN=ROOT CA
                serial:E0:A7:A0:8B:DF:BB:17:F5

    Signature Algorithm: md5WithRSAEncryption
         1b:8a:9e:e5:44:89:b6:3f:d5:f1:94:fc:62:ff:d9:91:73:50:
         81:13:77:39:71:d5:6e:76:4e:c8:73:15:f4:a9:46:1b:c9:e9:
         c0:ca:47:e3:0d:da:2d:08:60:c0:58:ff:28:46:02:ba:7a:dd:
         30:cd:b1:54:dc:5f:67:1c:e8:6d:8f:80:00:3e:9d:7e:98:52:
         1d:1d:dc:2b:1a:13:5b:da:d2:f4:65:43:bf:67:fc:1c:fc:1b:
         b5:de:85:22:77:f1:ef:2c:0b:46:4b:49:b9:82:51:32:5c:26:
         cb:96:c9:39:7d:d5:fb:9b:07:29:99:86:0c:b8:d6:b6:cb:a8:
         5d:87
-----BEGIN CERTIFICATE-----
MIIEUjCCA7ugAwIBAgIBAjANBgkqhkiG9w0BAQQFADCBsjELMAkGA1UEBhMCVVMx
EjAQBgNVBAgTCVdpc2NvbnNpbjEQMA4GA1UEBxMHTWFkaXNvbjErMCkGA1UEChMi
VW5pdmVyc2l0eSBvZiBXaXNjb25zaW4gLS0gTWFkaXNvbjElMCMGA1UEChMcQ29t
cHV0ZXIgU2NpZW5jZXMgRGVwYXJ0bWVudDEXMBUGA1UECxMOQ29uZG9yIFByb2pl
Y3QxEDAOBgNVBAMTB1JPT1QgQ0EwHhcNMTQwMjE4MDgzNTIxWhcNMTUwMjE4MDgz
NTIxWjCB4DELMAkGA1UEBhMCVVMxEjAQBgNVBAgTCVdpc2NvbnNpbjEQMA4GA1UE
BxMHTWFkaXNvbjErMCkGA1UEChMiVW5pdmVyc2l0eSBvZiBXaXNjb25zaW4gLS0g
TWFkaXNvbjElMCMGA1UEChMcQ29tcHV0ZXIgU2NpZW5jZXMgRGVwYXJ0bWVudDEX
MBUGA1UECxMOQ29uZG9yIFByb2plY3QxGjAYBgNVBAMTEW9tZWdhLmNzLndpc2Mu
ZWR1MSIwIAYJKoZIhvcNAQkBFhN6bWlsbGVyQGNzLndpc2MuZWR1MIGfMA0GCSqG
SIb3DQEBAQUAA4GNADCBiQKBgQDOlZA2+sztUv3+A1v0bvySBOUMoKcYgcZItPIH
s3DTwaKuJA+tOtVJEUGyjcdpKyO3vvuRnN6kE1Ip1d68IFBB6H03wnDAZMoZtJyH
QG0bWGe5zo6oK9pIokelNP4g94CjjvdtN/Cm8nUC8Db/+baKEKOiK2SGQAiud8yC
gRA9zQIDAQABo4IBRjCCAUIwCQYDVR0TBAIwADAsBglghkgBhvhCAQ0EHxYdT3Bl
blNTTCBHZW5lcmF0ZWQgQ2VydGlmaWNhdGUwHQYDVR0OBBYEFK0XUh+f1mipWfmt
0XVKln0run82MIHnBgNVHSMEgd8wgdyAFKQz9QggC5qLVEAWUelkDMODuL0zoYG4
pIG1MIGyMQswCQYDVQQGEwJVUzESMBAGA1UECBMJV2lzY29uc2luMRAwDgYDVQQH
EwdNYWRpc29uMSswKQYDVQQKEyJVbml2ZXJzaXR5IG9mIFdpc2NvbnNpbiAtLSBN
YWRpc29uMSUwIwYDVQQKExxDb21wdXRlciBTY2llbmNlcyBEZXBhcnRtZW50MRcw
FQYDVQQLEw5Db25kb3IgUHJvamVjdDEQMA4GA1UEAxMHUk9PVCBDQYIJAOCnoIvf
uxf1MA0GCSqGSIb3DQEBBAUAA4GBABuKnuVEibY/1fGU/GL/2ZFzUIETdzlx1W52
TshzFfSpRhvJ6cDKR+MN2i0IYMBY/yhGArp63TDNsVTcX2cc6G2PgAA+nX6YUh0d
3CsaE1va0vRlQ79n/Bz8G7XehSJ38e8sC0ZLSbmCUTJcJsuWyTl91fubBymZhgy4
1rbLqF2H
-----END CERTIFICATE-----
